; Function Attrs: mustprogress uwtable
define hidden noundef zeroext i1 @_ZN13proof_checker6check1EP3appR10ref_vectorI4expr11ast_managerE(ptr noundef nonnull align 8 dereferenceable(156) %this, ptr noundef %p, ptr noundef nonnull align 8 dereferenceable(16) %side_conditions) local_unnamed_addr #4 align 2 {
entry:
  %m_decl.i.i = getelementptr inbounds i8, ptr %p, i64 16
  %0 = load ptr, ptr %m_decl.i.i, align 8
  %m_info.i.i = getelementptr inbounds i8, ptr %0, i64 24
  %1 = load ptr, ptr %m_info.i.i, align 8
  %cmp.i.i = icmp eq ptr %1, null
  br i1 %cmp.i.i, label %return, label %_ZNK3app13get_family_idEv.exit

_ZNK3app13get_family_idEv.exit:                   ; preds = %entry
  %2 = load i32, ptr %1, align 8
  %cmp = icmp eq i32 %2, 0
  br i1 %cmp, label %if.then, label %return

if.then:                                          ; preds = %_ZNK3app13get_family_idEv.exit
  %call3 = tail call noundef zeroext i1 @_ZN13proof_checker12check1_basicEP3appR10ref_vectorI4expr11ast_managerE(ptr noundef nonnull align 8 dereferenceable(156) %this, ptr noundef nonnull %p, ptr noundef nonnull align 8 dereferenceable(16) %side_conditions)
  br label %return

return:                                           ; preds = %entry, %_ZNK3app13get_family_idEv.exit, %if.then
  %retval.0 = phi i1 [ %call3, %if.then ], [ false, %_ZNK3app13get_family_idEv.exit ], [ false, %entry ]
  ret i1 %retval.0
}